; Function Attrs: mustprogress uwtable
define hidden void @_ZN4cvc58internal13preprocessing17AssertionPipeline26enableStoreSubstsInAssertsEv(ptr noundef nonnull align 8 dereferenceable(232) initializes((120, 121)) %0) local_unnamed_addr #3 align 2 personality ptr @__gxx_personality_v0 {
  %2 = alloca %"class.cvc5::internal::NodeTemplate", align 8
  %3 = alloca i8, align 1
  %4 = getelementptr inbounds nuw i8, ptr %0, i64 120
  store i8 1, ptr %4, align 8, !tbaa !23
  call void @llvm.lifetime.start.p0(i64 8, ptr nonnull %2) #23
  %5 = tail call noundef ptr @_ZNK4cvc58internal6EnvObj11nodeManagerEv(ptr noundef nonnull align 8 dereferenceable(16) %0)
  call void @llvm.lifetime.start.p0(i64 1, ptr nonnull %3) #23
  store i8 1, ptr %3, align 1, !tbaa !53
  call void @_ZN4cvc58internal11NodeManager7mkConstIbEENS0_12NodeTemplateILb1EEERKT_(ptr dead_on_unwind nonnull writable sret(%"class.cvc5::internal::NodeTemplate") align 8 %2, ptr noundef nonnull align 8 dereferenceable(3560) %5, ptr noundef nonnull align 1 dereferenceable(1) %3)
  %6 = getelementptr inbounds nuw i8, ptr %0, i64 40
  %7 = load ptr, ptr %6, align 8, !tbaa !63
  %8 = getelementptr inbounds nuw i8, ptr %0, i64 48
  %9 = load ptr, ptr %8, align 8, !tbaa !65
  %.not.i.i = icmp eq ptr %7, %9
  br i1 %.not.i.i, label %28, label %10

10:                                               ; preds = %1
  %11 = load ptr, ptr %2, align 8, !tbaa !11
  store ptr %11, ptr %7, align 8, !tbaa !11
  %12 = load i64, ptr %11, align 8
  %13 = lshr i64 %12, 40
  %14 = trunc nuw nsw i64 %13 to i32
  %15 = and i32 %14, 1048575
  %16 = icmp samesign ult i32 %15, 1048574
  br i1 %16, label %17, label %22, !prof !55

17:                                               ; preds = %10
  %18 = add i64 %12, 1099511627776
  %19 = and i64 %18, 1152920405095219200
  %20 = and i64 %12, -1152920405095219201
  %21 = or disjoint i64 %19, %20
  store i64 %21, ptr %11, align 8
  br label %_ZNSt16allocator_traitsISaIN4cvc58internal12NodeTemplateILb1EEEEE9constructIS3_JS3_EEEvRS4_PT_DpOT0_.exit.i.i

22:                                               ; preds = %10
  %23 = icmp eq i32 %15, 1048574
  br i1 %23, label %24, label %_ZNSt16allocator_traitsISaIN4cvc58internal12NodeTemplateILb1EEEEE9constructIS3_JS3_EEEvRS4_PT_DpOT0_.exit.i.i, !prof !54

24:                                               ; preds = %22
  %25 = or i64 %12, 1152920405095219200
  store i64 %25, ptr %11, align 8
  invoke void @_ZN4cvc58internal4expr9NodeValue20markRefCountMaxedOutEv(ptr noundef nonnull align 8 dereferenceable(24) %11)
          to label %_ZNSt16allocator_traitsISaIN4cvc58internal12NodeTemplateILb1EEEEE9constructIS3_JS3_EEEvRS4_PT_DpOT0_.exit.i.i unwind label %43

_ZNSt16allocator_traitsISaIN4cvc58internal12NodeTemplateILb1EEEEE9constructIS3_JS3_EEEvRS4_PT_DpOT0_.exit.i.i: ; preds = %24, %22, %17
  %26 = load ptr, ptr %6, align 8, !tbaa !63
  %27 = getelementptr inbounds nuw i8, ptr %26, i64 8
  store ptr %27, ptr %6, align 8, !tbaa !63
  br label %_ZNSt6vectorIN4cvc58internal12NodeTemplateILb1EEESaIS3_EE9push_backEOS3_.exit

28:                                               ; preds = %1
  %29 = getelementptr inbounds nuw i8, ptr %0, i64 32
  invoke void @_ZNSt6vectorIN4cvc58internal12NodeTemplateILb1EEESaIS3_EE17_M_realloc_insertIJS3_EEEvN9__gnu_cxx17__normal_iteratorIPS3_S5_EEDpOT_(ptr noundef nonnull align 8 dereferenceable(24) %29, ptr %7, ptr noundef nonnull align 8 dereferenceable(8) %2)
          to label %_ZNSt6vectorIN4cvc58internal12NodeTemplateILb1EEESaIS3_EE9push_backEOS3_.exit unwind label %43

_ZNSt6vectorIN4cvc58internal12NodeTemplateILb1EEESaIS3_EE9push_backEOS3_.exit: ; preds = %_ZNSt16allocator_traitsISaIN4cvc58internal12NodeTemplateILb1EEEEE9constructIS3_JS3_EEEvRS4_PT_DpOT0_.exit.i.i, %28
  %30 = load ptr, ptr %2, align 8, !tbaa !11
  %31 = load i64, ptr %30, align 8
  %32 = and i64 %31, 1152920405095219200
  %.not.i.i3 = icmp eq i64 %32, 1152920405095219200
  br i1 %.not.i.i3, label %_ZN4cvc58internal12NodeTemplateILb1EED2Ev.exit, label %33, !prof !54

33:                                               ; preds = %_ZNSt6vectorIN4cvc58internal12NodeTemplateILb1EEESaIS3_EE9push_backEOS3_.exit
  %34 = add i64 %31, 1152920405095219200
  %35 = and i64 %34, 1152920405095219200
  %36 = and i64 %31, -1152920405095219201
  %37 = or disjoint i64 %35, %36
  store i64 %37, ptr %30, align 8
  %38 = icmp eq i64 %35, 0
  br i1 %38, label %39, label %_ZN4cvc58internal12NodeTemplateILb1EED2Ev.exit, !prof !54

39:                                               ; preds = %33
  invoke void @_ZN4cvc58internal4expr9NodeValue15markForDeletionEv(ptr noundef nonnull align 8 dereferenceable(24) %30)
          to label %_ZN4cvc58internal12NodeTemplateILb1EED2Ev.exit unwind label %40

40:                                               ; preds = %39
  %41 = landingpad { ptr, i32 }
          catch ptr null
  %42 = extractvalue { ptr, i32 } %41, 0
  call void @__clang_call_terminate(ptr %42) #25
  unreachable

_ZN4cvc58internal12NodeTemplateILb1EED2Ev.exit:   ; preds = %_ZNSt6vectorIN4cvc58internal12NodeTemplateILb1EEESaIS3_EE9push_backEOS3_.exit, %33, %39
  call void @llvm.lifetime.end.p0(i64 1, ptr nonnull %3) #23
  call void @llvm.lifetime.end.p0(i64 8, ptr nonnull %2) #23
  ret void

43:                                               ; preds = %28, %24
  %44 = landingpad { ptr, i32 }
          cleanup
  call void @_ZN4cvc58internal12NodeTemplateILb1EED2Ev(ptr noundef nonnull align 8 dereferenceable(8) %2) #23
  call void @llvm.lifetime.end.p0(i64 1, ptr nonnull %3) #23
  call void @llvm.lifetime.end.p0(i64 8, ptr nonnull %2) #23
  resume { ptr, i32 } %44
}